target datalayout = "e-m:e-p270:32:32-p271:32:32-p272:64:64-i64:64-i128:128-f80:128-n8:16:32:64-S128"
target triple = "x86_64-pc-linux-gnu"

%"class.pbrt::SquareMatrix" = type { [3 x [3 x float]] }
%"class.pbrt::Point2" = type { %"class.pbrt::Tuple2" }
%"class.pbrt::Tuple2" = type { float, float }
%"class.pbrt::RGBColorSpace" = type { %"class.pbrt::Point2", %"class.pbrt::Point2", %"class.pbrt::Point2", %"class.pbrt::Point2", %"class.pbrt::DenselySampledSpectrum", %"class.pbrt::SquareMatrix", %"class.pbrt::SquareMatrix", ptr }
%"class.pbrt::DenselySampledSpectrum" = type { i32, i32, %"class.pstd::vector" }
%"class.pstd::vector" = type { %"class.pstd::pmr::polymorphic_allocator.0", ptr, i64, i64 }
%"class.pstd::pmr::polymorphic_allocator.0" = type { ptr }
%class.anon = type { i8 }
%"class.std::initializer_list" = type { ptr, i64 }

@_ZN4pbrt13RGBColorSpace10ACES2065_1E = dso_local global ptr null, align 8
@_ZN4pbrt13RGBColorSpace7Rec2020E = dso_local global ptr null, align 8
@_ZN4pbrt13RGBColorSpace6DCI_P3E = dso_local global ptr null, align 8
@_ZN4pbrt13RGBColorSpace4sRGBE = dso_local global ptr null, align 8

; Function Attrs: inlinehint mustprogress nounwind uwtable
define linkonce_odr dso_local noundef float @_ZSt3absf(float noundef %0) #9 comdat {
  %2 = alloca float, align 4
  store float %0, ptr %2, align 4, !tbaa !9
  %3 = load float, ptr %2, align 4, !tbaa !9
  %4 = call float @llvm.fabs.f32(float %3)
  ret float %4
}

; Function Attrs: mustprogress nounwind uwtable
define linkonce_odr dso_local noundef i64 @_ZNKSt16initializer_listIPKN4pbrt13RGBColorSpaceEE4sizeEv(ptr noundef nonnull align 8 dereferenceable(16) %0) #5 comdat align 2 {
  %2 = alloca ptr, align 8
  store ptr %0, ptr %2, align 8, !tbaa !66
  %3 = load ptr, ptr %2, align 8
  %4 = getelementptr inbounds nuw %"class.std::initializer_list", ptr %3, i32 0, i32 1
  %5 = load i64, ptr %4, align 8, !tbaa !65
  ret i64 %5
}

; Function Attrs: inlinehint mustprogress uwtable
define internal noundef zeroext i1 @"_ZZN4pbrt13RGBColorSpace6LookupENS_6Point2IfEES2_S2_S2_ENK3$_0clERKS2_S5_"(ptr noundef nonnull align 1 dereferenceable(1) %0, ptr noundef nonnull align 4 dereferenceable(8) %1, ptr noundef nonnull align 4 dereferenceable(8) %2) #6 align 2 {
  %4 = alloca ptr, align 8
  %5 = alloca ptr, align 8
  %6 = alloca ptr, align 8
  store ptr %0, ptr %4, align 8, !tbaa !57
  store ptr %1, ptr %5, align 8, !tbaa !39
  store ptr %2, ptr %6, align 8, !tbaa !39
  %7 = load ptr, ptr %5, align 8, !tbaa !39
  %8 = getelementptr inbounds nuw %"class.pbrt::Tuple2", ptr %7, i32 0, i32 0
  %9 = load float, ptr %8, align 4, !tbaa !42
  %10 = load ptr, ptr %6, align 8, !tbaa !39
  %11 = getelementptr inbounds nuw %"class.pbrt::Tuple2", ptr %10, i32 0, i32 0
  %12 = load float, ptr %11, align 4, !tbaa !42
  %13 = fcmp oeq float %9, %12
  br i1 %13, label %29, label %14

14:                                               ; preds = %3
  %15 = load ptr, ptr %5, align 8, !tbaa !39
  %16 = getelementptr inbounds nuw %"class.pbrt::Tuple2", ptr %15, i32 0, i32 0
  %17 = load float, ptr %16, align 4, !tbaa !42
  %18 = load ptr, ptr %6, align 8, !tbaa !39
  %19 = getelementptr inbounds nuw %"class.pbrt::Tuple2", ptr %18, i32 0, i32 0
  %20 = load float, ptr %19, align 4, !tbaa !42
  %21 = fsub float %17, %20
  %22 = load ptr, ptr %6, align 8, !tbaa !39
  %23 = getelementptr inbounds nuw %"class.pbrt::Tuple2", ptr %22, i32 0, i32 0
  %24 = load float, ptr %23, align 4, !tbaa !42
  %25 = fdiv float %21, %24
  %26 = call noundef float @_ZSt3absf(float noundef %25)
  %27 = fpext float %26 to double
  %28 = fcmp olt double %27, 1.000000e-03
  br i1 %28, label %29, label %54

29:                                               ; preds = %14, %3
  %30 = load ptr, ptr %5, align 8, !tbaa !39
  %31 = getelementptr inbounds nuw %"class.pbrt::Tuple2", ptr %30, i32 0, i32 1
  %32 = load float, ptr %31, align 4, !tbaa !41
  %33 = load ptr, ptr %6, align 8, !tbaa !39
  %34 = getelementptr inbounds nuw %"class.pbrt::Tuple2", ptr %33, i32 0, i32 1
  %35 = load float, ptr %34, align 4, !tbaa !41
  %36 = fcmp oeq float %32, %35
  br i1 %36, label %52, label %37

37:                                               ; preds = %29
  %38 = load ptr, ptr %5, align 8, !tbaa !39
  %39 = getelementptr inbounds nuw %"class.pbrt::Tuple2", ptr %38, i32 0, i32 1
  %40 = load float, ptr %39, align 4, !tbaa !41
  %41 = load ptr, ptr %6, align 8, !tbaa !39
  %42 = getelementptr inbounds nuw %"class.pbrt::Tuple2", ptr %41, i32 0, i32 1
  %43 = load float, ptr %42, align 4, !tbaa !41
  %44 = fsub float %40, %43
  %45 = load ptr, ptr %6, align 8, !tbaa !39
  %46 = getelementptr inbounds nuw %"class.pbrt::Tuple2", ptr %45, i32 0, i32 1
  %47 = load float, ptr %46, align 4, !tbaa !41
  %48 = fdiv float %44, %47
  %49 = call noundef float @_ZSt3absf(float noundef %48)
  %50 = fpext float %49 to double
  %51 = fcmp olt double %50, 1.000000e-03
  br label %52

52:                                               ; preds = %37, %29
  %53 = phi i1 [ true, %29 ], [ %51, %37 ]
  br label %54

54:                                               ; preds = %52, %14
  %55 = phi i1 [ false, %14 ], [ %53, %52 ]
  ret i1 %55
}

; Function Attrs: mustprogress nounwind uwtable
define linkonce_odr dso_local noundef ptr @_ZNKSt16initializer_listIPKN4pbrt13RGBColorSpaceEE3endEv(ptr noundef nonnull align 8 dereferenceable(16) %0) #5 comdat align 2 {
  %2 = alloca ptr, align 8
  store ptr %0, ptr %2, align 8, !tbaa !66
  %3 = load ptr, ptr %2, align 8
  %4 = call noundef ptr @_ZNKSt16initializer_listIPKN4pbrt13RGBColorSpaceEE5beginEv(ptr noundef nonnull align 8 dereferenceable(16) %3) #20
  %5 = call noundef i64 @_ZNKSt16initializer_listIPKN4pbrt13RGBColorSpaceEE4sizeEv(ptr noundef nonnull align 8 dereferenceable(16) %3) #20
  %6 = getelementptr inbounds nuw ptr, ptr %4, i64 %5
  ret ptr %6
}

; Function Attrs: mustprogress nounwind uwtable
define linkonce_odr dso_local noundef ptr @_ZNKSt16initializer_listIPKN4pbrt13RGBColorSpaceEE5beginEv(ptr noundef nonnull align 8 dereferenceable(16) %0) #5 comdat align 2 {
  %2 = alloca ptr, align 8
  store ptr %0, ptr %2, align 8, !tbaa !66
  %3 = load ptr, ptr %2, align 8
  %4 = getelementptr inbounds nuw %"class.std::initializer_list", ptr %3, i32 0, i32 0
  %5 = load ptr, ptr %4, align 8, !tbaa !61
  ret ptr %5
}

; Function Attrs: mustprogress uwtable
define dso_local noundef ptr @_ZN4pbrt13RGBColorSpace6LookupENS_6Point2IfEES2_S2_S2_(<2 x float> %0, <2 x float> %1, <2 x float> %2, <2 x float> %3) #3 align 2 {
  %5 = alloca ptr, align 8
  %6 = alloca %"class.pbrt::Point2", align 4
  %7 = alloca %"class.pbrt::Point2", align 4
  %8 = alloca %"class.pbrt::Point2", align 4
  %9 = alloca %"class.pbrt::Point2", align 4
  %10 = alloca %class.anon, align 1
  %11 = alloca ptr, align 8
  %12 = alloca %"class.std::initializer_list", align 8
  %13 = alloca [4 x ptr], align 8
  %14 = alloca ptr, align 8
  %15 = alloca ptr, align 8
  %16 = alloca i32, align 4
  %17 = alloca ptr, align 8
  %18 = getelementptr inbounds nuw %"class.pbrt::Point2", ptr %6, i32 0, i32 0
  store <2 x float> %0, ptr %18, align 4
  %19 = getelementptr inbounds nuw %"class.pbrt::Point2", ptr %7, i32 0, i32 0
  store <2 x float> %1, ptr %19, align 4
  %20 = getelementptr inbounds nuw %"class.pbrt::Point2", ptr %8, i32 0, i32 0
  store <2 x float> %2, ptr %20, align 4
  %21 = getelementptr inbounds nuw %"class.pbrt::Point2", ptr %9, i32 0, i32 0
  store <2 x float> %3, ptr %21, align 4
  call void @llvm.lifetime.start.p0(i64 1, ptr %10) #20
  call void @llvm.lifetime.start.p0(i64 8, ptr %11) #20
  call void @llvm.lifetime.start.p0(i64 16, ptr %12) #20
  call void @llvm.lifetime.start.p0(i64 32, ptr %13) #20
  %22 = load ptr, ptr @_ZN4pbrt13RGBColorSpace10ACES2065_1E, align 8, !tbaa !13
  store ptr %22, ptr %13, align 8, !tbaa !13
  %23 = getelementptr inbounds ptr, ptr %13, i64 1
  %24 = load ptr, ptr @_ZN4pbrt13RGBColorSpace6DCI_P3E, align 8, !tbaa !13
  store ptr %24, ptr %23, align 8, !tbaa !13
  %25 = getelementptr inbounds ptr, ptr %13, i64 2
  %26 = load ptr, ptr @_ZN4pbrt13RGBColorSpace7Rec2020E, align 8, !tbaa !13
  store ptr %26, ptr %25, align 8, !tbaa !13
  %27 = getelementptr inbounds ptr, ptr %13, i64 3
  %28 = load ptr, ptr @_ZN4pbrt13RGBColorSpace4sRGBE, align 8, !tbaa !13
  store ptr %28, ptr %27, align 8, !tbaa !13
  %29 = getelementptr inbounds nuw %"class.std::initializer_list", ptr %12, i32 0, i32 0
  store ptr %13, ptr %29, align 8, !tbaa !61
  %30 = getelementptr inbounds nuw %"class.std::initializer_list", ptr %12, i32 0, i32 1
  store i64 4, ptr %30, align 8, !tbaa !65
  store ptr %12, ptr %11, align 8, !tbaa !66
  call void @llvm.lifetime.start.p0(i64 8, ptr %14) #20
  %31 = load ptr, ptr %11, align 8, !tbaa !66
  %32 = call noundef ptr @_ZNKSt16initializer_listIPKN4pbrt13RGBColorSpaceEE5beginEv(ptr noundef nonnull align 8 dereferenceable(16) %31) #20
  store ptr %32, ptr %14, align 8, !tbaa !68
  call void @llvm.lifetime.start.p0(i64 8, ptr %15) #20
  %33 = load ptr, ptr %11, align 8, !tbaa !66
  %34 = call noundef ptr @_ZNKSt16initializer_listIPKN4pbrt13RGBColorSpaceEE3endEv(ptr noundef nonnull align 8 dereferenceable(16) %33) #20
  store ptr %34, ptr %15, align 8, !tbaa !68
  br label %35

35:                                               ; preds = %64, %4
  %36 = load ptr, ptr %14, align 8, !tbaa !68
  %37 = load ptr, ptr %15, align 8, !tbaa !68
  %38 = icmp ne ptr %36, %37
  br i1 %38, label %40, label %39

39:                                               ; preds = %35
  store i32 2, ptr %16, align 4
  br label %67

40:                                               ; preds = %35
  call void @llvm.lifetime.start.p0(i64 8, ptr %17) #20
  %41 = load ptr, ptr %14, align 8, !tbaa !68
  %42 = load ptr, ptr %41, align 8, !tbaa !13
  store ptr %42, ptr %17, align 8, !tbaa !13
  %43 = load ptr, ptr %17, align 8, !tbaa !13
  %44 = getelementptr inbounds nuw %"class.pbrt::RGBColorSpace", ptr %43, i32 0, i32 0
  %45 = call noundef zeroext i1 @"_ZZN4pbrt13RGBColorSpace6LookupENS_6Point2IfEES2_S2_S2_ENK3$_0clERKS2_S5_"(ptr noundef nonnull align 1 dereferenceable(1) %10, ptr noundef nonnull align 4 dereferenceable(8) %6, ptr noundef nonnull align 4 dereferenceable(8) %44)
  br i1 %45, label %46, label %60

46:                                               ; preds = %40
  %47 = load ptr, ptr %17, align 8, !tbaa !13
  %48 = getelementptr inbounds nuw %"class.pbrt::RGBColorSpace", ptr %47, i32 0, i32 1
  %49 = call noundef zeroext i1 @"_ZZN4pbrt13RGBColorSpace6LookupENS_6Point2IfEES2_S2_S2_ENK3$_0clERKS2_S5_"(ptr noundef nonnull align 1 dereferenceable(1) %10, ptr noundef nonnull align 4 dereferenceable(8) %7, ptr noundef nonnull align 4 dereferenceable(8) %48)
  br i1 %49, label %50, label %60

50:                                               ; preds = %46
  %51 = load ptr, ptr %17, align 8, !tbaa !13
  %52 = getelementptr inbounds nuw %"class.pbrt::RGBColorSpace", ptr %51, i32 0, i32 2
  %53 = call noundef zeroext i1 @"_ZZN4pbrt13RGBColorSpace6LookupENS_6Point2IfEES2_S2_S2_ENK3$_0clERKS2_S5_"(ptr noundef nonnull align 1 dereferenceable(1) %10, ptr noundef nonnull align 4 dereferenceable(8) %8, ptr noundef nonnull align 4 dereferenceable(8) %52)
  br i1 %53, label %54, label %60

54:                                               ; preds = %50
  %55 = load ptr, ptr %17, align 8, !tbaa !13
  %56 = getelementptr inbounds nuw %"class.pbrt::RGBColorSpace", ptr %55, i32 0, i32 3
  %57 = call noundef zeroext i1 @"_ZZN4pbrt13RGBColorSpace6LookupENS_6Point2IfEES2_S2_S2_ENK3$_0clERKS2_S5_"(ptr noundef nonnull align 1 dereferenceable(1) %10, ptr noundef nonnull align 4 dereferenceable(8) %9, ptr noundef nonnull align 4 dereferenceable(8) %56)
  br i1 %57, label %58, label %60

58:                                               ; preds = %54
  %59 = load ptr, ptr %17, align 8, !tbaa !13
  store ptr %59, ptr %5, align 8
  store i32 1, ptr %16, align 4
  br label %61

60:                                               ; preds = %54, %50, %46, %40
  store i32 0, ptr %16, align 4
  br label %61

61:                                               ; preds = %60, %58
  call void @llvm.lifetime.end.p0(i64 8, ptr %17) #20
  %62 = load i32, ptr %16, align 4
  switch i32 %62, label %67 [
    i32 0, label %63
  ]

63:                                               ; preds = %61
  br label %64

64:                                               ; preds = %63
  %65 = load ptr, ptr %14, align 8, !tbaa !68
  %66 = getelementptr inbounds nuw ptr, ptr %65, i32 1
  store ptr %66, ptr %14, align 8, !tbaa !68
  br label %35

67:                                               ; preds = %61, %39
  call void @llvm.lifetime.end.p0(i64 8, ptr %15) #20
  call void @llvm.lifetime.end.p0(i64 8, ptr %14) #20
  call void @llvm.lifetime.end.p0(i64 32, ptr %13) #20
  call void @llvm.lifetime.end.p0(i64 16, ptr %12) #20
  call void @llvm.lifetime.end.p0(i64 8, ptr %11) #20
  %68 = load i32, ptr %16, align 4
  switch i32 %68, label %70 [
    i32 2, label %69
  ]

69:                                               ; preds = %67
  store ptr null, ptr %5, align 8
  store i32 1, ptr %16, align 4
  br label %70

70:                                               ; preds = %69, %67
  call void @llvm.lifetime.end.p0(i64 1, ptr %10) #20
  %71 = load ptr, ptr %5, align 8
  ret ptr %71
}