; Function Attrs: mustprogress nofree norecurse nosync nounwind willreturn memory(read, inaccessiblemem: none) uwtable
define dso_local noundef ptr @_ZN4pbrt13RGBColorSpace6LookupENS_6Point2IfEES2_S2_S2_(<2 x float> %0, <2 x float> %1, <2 x float> %2, <2 x float> %3) local_unnamed_addr #8 align 2 {
  %5 = alloca [4 x ptr], align 8
  call void @llvm.lifetime.start.p0(i64 32, ptr nonnull %5) #24
  %6 = load ptr, ptr @_ZN4pbrt13RGBColorSpace10ACES2065_1E, align 8, !tbaa !68
  store ptr %6, ptr %5, align 8, !tbaa !68
  %7 = getelementptr inbounds nuw i8, ptr %5, i64 8
  %8 = load ptr, ptr @_ZN4pbrt13RGBColorSpace6DCI_P3E, align 8, !tbaa !68
  store ptr %8, ptr %7, align 8, !tbaa !68
  %9 = getelementptr inbounds nuw i8, ptr %5, i64 16
  %10 = load ptr, ptr @_ZN4pbrt13RGBColorSpace7Rec2020E, align 8, !tbaa !68
  store ptr %10, ptr %9, align 8, !tbaa !68
  %11 = getelementptr inbounds nuw i8, ptr %5, i64 24
  %12 = load ptr, ptr @_ZN4pbrt13RGBColorSpace4sRGBE, align 8, !tbaa !68
  store ptr %12, ptr %11, align 8, !tbaa !68
  %.sroa.037.4.vec.extract = extractelement <2 x float> %3, i64 1
  %.sroa.040.0.vec.extract = extractelement <2 x float> %0, i64 0
  %.sroa.040.4.vec.extract = extractelement <2 x float> %0, i64 1
  %.sroa.039.0.vec.extract = extractelement <2 x float> %1, i64 0
  %.sroa.039.4.vec.extract = extractelement <2 x float> %1, i64 1
  %.sroa.038.0.vec.extract = extractelement <2 x float> %2, i64 0
  %.sroa.038.4.vec.extract = extractelement <2 x float> %2, i64 1
  %.sroa.037.0.vec.extract = extractelement <2 x float> %3, i64 0
  br label %13

13:                                               ; preds = %4, %"_ZZN4pbrt13RGBColorSpace6LookupENS_6Point2IfEES2_S2_S2_ENK3$_0clERKS2_S5_.exit.thread41"
  %.016.idx47 = phi i64 [ 0, %4 ], [ %.016.add, %"_ZZN4pbrt13RGBColorSpace6LookupENS_6Point2IfEES2_S2_S2_ENK3$_0clERKS2_S5_.exit.thread41" ]
  %.016.ptr = getelementptr inbounds nuw i8, ptr %5, i64 %.016.idx47
  %14 = load ptr, ptr %.016.ptr, align 8, !tbaa !68
  %.val18 = load float, ptr %14, align 4, !tbaa !57
  %15 = getelementptr i8, ptr %14, i64 4
  %.val19 = load float, ptr %15, align 4
  %16 = fcmp oeq float %.sroa.040.0.vec.extract, %.val18
  br i1 %16, label %23, label %17

17:                                               ; preds = %13
  %18 = fsub float %.sroa.040.0.vec.extract, %.val18
  %19 = fdiv float %18, %.val18
  %20 = tail call noundef float @llvm.fabs.f32(float %19)
  %21 = fpext float %20 to double
  %22 = fcmp olt double %21, 1.000000e-03
  br i1 %22, label %23, label %"_ZZN4pbrt13RGBColorSpace6LookupENS_6Point2IfEES2_S2_S2_ENK3$_0clERKS2_S5_.exit.thread41"

23:                                               ; preds = %17, %13
  %24 = fcmp oeq float %.sroa.040.4.vec.extract, %.val19
  br i1 %24, label %"_ZZN4pbrt13RGBColorSpace6LookupENS_6Point2IfEES2_S2_S2_ENK3$_0clERKS2_S5_.exit.thread", label %"_ZZN4pbrt13RGBColorSpace6LookupENS_6Point2IfEES2_S2_S2_ENK3$_0clERKS2_S5_.exit"

"_ZZN4pbrt13RGBColorSpace6LookupENS_6Point2IfEES2_S2_S2_ENK3$_0clERKS2_S5_.exit": ; preds = %23
  %25 = fsub float %.sroa.040.4.vec.extract, %.val19
  %26 = fdiv float %25, %.val19
  %27 = tail call noundef float @llvm.fabs.f32(float %26)
  %28 = fpext float %27 to double
  %29 = fcmp olt double %28, 1.000000e-03
  br i1 %29, label %"_ZZN4pbrt13RGBColorSpace6LookupENS_6Point2IfEES2_S2_S2_ENK3$_0clERKS2_S5_.exit.thread", label %"_ZZN4pbrt13RGBColorSpace6LookupENS_6Point2IfEES2_S2_S2_ENK3$_0clERKS2_S5_.exit.thread41"

"_ZZN4pbrt13RGBColorSpace6LookupENS_6Point2IfEES2_S2_S2_ENK3$_0clERKS2_S5_.exit.thread": ; preds = %23, %"_ZZN4pbrt13RGBColorSpace6LookupENS_6Point2IfEES2_S2_S2_ENK3$_0clERKS2_S5_.exit"
  %30 = getelementptr inbounds nuw i8, ptr %14, i64 8
  %.val22 = load float, ptr %30, align 4, !tbaa !57
  %31 = getelementptr i8, ptr %14, i64 12
  %.val23 = load float, ptr %31, align 4
  %32 = fcmp oeq float %.sroa.039.0.vec.extract, %.val22
  br i1 %32, label %39, label %33

33:                                               ; preds = %"_ZZN4pbrt13RGBColorSpace6LookupENS_6Point2IfEES2_S2_S2_ENK3$_0clERKS2_S5_.exit.thread"
  %34 = fsub float %.sroa.039.0.vec.extract, %.val22
  %35 = fdiv float %34, %.val22
  %36 = tail call noundef float @llvm.fabs.f32(float %35)
  %37 = fpext float %36 to double
  %38 = fcmp olt double %37, 1.000000e-03
  br i1 %38, label %39, label %"_ZZN4pbrt13RGBColorSpace6LookupENS_6Point2IfEES2_S2_S2_ENK3$_0clERKS2_S5_.exit.thread41"

39:                                               ; preds = %33, %"_ZZN4pbrt13RGBColorSpace6LookupENS_6Point2IfEES2_S2_S2_ENK3$_0clERKS2_S5_.exit.thread"
  %40 = fcmp oeq float %.sroa.039.4.vec.extract, %.val23
  br i1 %40, label %"_ZZN4pbrt13RGBColorSpace6LookupENS_6Point2IfEES2_S2_S2_ENK3$_0clERKS2_S5_.exit32.thread", label %"_ZZN4pbrt13RGBColorSpace6LookupENS_6Point2IfEES2_S2_S2_ENK3$_0clERKS2_S5_.exit32"

"_ZZN4pbrt13RGBColorSpace6LookupENS_6Point2IfEES2_S2_S2_ENK3$_0clERKS2_S5_.exit32": ; preds = %39
  %41 = fsub float %.sroa.039.4.vec.extract, %.val23
  %42 = fdiv float %41, %.val23
  %43 = tail call noundef float @llvm.fabs.f32(float %42)
  %44 = fpext float %43 to double
  %45 = fcmp olt double %44, 1.000000e-03
  br i1 %45, label %"_ZZN4pbrt13RGBColorSpace6LookupENS_6Point2IfEES2_S2_S2_ENK3$_0clERKS2_S5_.exit32.thread", label %"_ZZN4pbrt13RGBColorSpace6LookupENS_6Point2IfEES2_S2_S2_ENK3$_0clERKS2_S5_.exit.thread41"

"_ZZN4pbrt13RGBColorSpace6LookupENS_6Point2IfEES2_S2_S2_ENK3$_0clERKS2_S5_.exit32.thread": ; preds = %39, %"_ZZN4pbrt13RGBColorSpace6LookupENS_6Point2IfEES2_S2_S2_ENK3$_0clERKS2_S5_.exit32"
  %46 = getelementptr inbounds nuw i8, ptr %14, i64 16
  %.val26 = load float, ptr %46, align 4, !tbaa !57
  %47 = getelementptr i8, ptr %14, i64 20
  %.val27 = load float, ptr %47, align 4
  %48 = fcmp oeq float %.sroa.038.0.vec.extract, %.val26
  br i1 %48, label %55, label %49

49:                                               ; preds = %"_ZZN4pbrt13RGBColorSpace6LookupENS_6Point2IfEES2_S2_S2_ENK3$_0clERKS2_S5_.exit32.thread"
  %50 = fsub float %.sroa.038.0.vec.extract, %.val26
  %51 = fdiv float %50, %.val26
  %52 = tail call noundef float @llvm.fabs.f32(float %51)
  %53 = fpext float %52 to double
  %54 = fcmp olt double %53, 1.000000e-03
  br i1 %54, label %55, label %"_ZZN4pbrt13RGBColorSpace6LookupENS_6Point2IfEES2_S2_S2_ENK3$_0clERKS2_S5_.exit.thread41"

55:                                               ; preds = %49, %"_ZZN4pbrt13RGBColorSpace6LookupENS_6Point2IfEES2_S2_S2_ENK3$_0clERKS2_S5_.exit32.thread"
  %56 = fcmp oeq float %.sroa.038.4.vec.extract, %.val27
  br i1 %56, label %"_ZZN4pbrt13RGBColorSpace6LookupENS_6Point2IfEES2_S2_S2_ENK3$_0clERKS2_S5_.exit33.thread", label %"_ZZN4pbrt13RGBColorSpace6LookupENS_6Point2IfEES2_S2_S2_ENK3$_0clERKS2_S5_.exit33"

"_ZZN4pbrt13RGBColorSpace6LookupENS_6Point2IfEES2_S2_S2_ENK3$_0clERKS2_S5_.exit33": ; preds = %55
  %57 = fsub float %.sroa.038.4.vec.extract, %.val27
  %58 = fdiv float %57, %.val27
  %59 = tail call noundef float @llvm.fabs.f32(float %58)
  %60 = fpext float %59 to double
  %61 = fcmp olt double %60, 1.000000e-03
  br i1 %61, label %"_ZZN4pbrt13RGBColorSpace6LookupENS_6Point2IfEES2_S2_S2_ENK3$_0clERKS2_S5_.exit33.thread", label %"_ZZN4pbrt13RGBColorSpace6LookupENS_6Point2IfEES2_S2_S2_ENK3$_0clERKS2_S5_.exit.thread41"

"_ZZN4pbrt13RGBColorSpace6LookupENS_6Point2IfEES2_S2_S2_ENK3$_0clERKS2_S5_.exit33.thread": ; preds = %55, %"_ZZN4pbrt13RGBColorSpace6LookupENS_6Point2IfEES2_S2_S2_ENK3$_0clERKS2_S5_.exit33"
  %62 = getelementptr inbounds nuw i8, ptr %14, i64 24
  %.val30 = load float, ptr %62, align 4, !tbaa !57
  %63 = getelementptr i8, ptr %14, i64 28
  %.val31 = load float, ptr %63, align 4
  %64 = fcmp oeq float %.sroa.037.0.vec.extract, %.val30
  br i1 %64, label %71, label %65

65:                                               ; preds = %"_ZZN4pbrt13RGBColorSpace6LookupENS_6Point2IfEES2_S2_S2_ENK3$_0clERKS2_S5_.exit33.thread"
  %66 = fsub float %.sroa.037.0.vec.extract, %.val30
  %67 = fdiv float %66, %.val30
  %68 = tail call noundef float @llvm.fabs.f32(float %67)
  %69 = fpext float %68 to double
  %70 = fcmp olt double %69, 1.000000e-03
  br i1 %70, label %71, label %"_ZZN4pbrt13RGBColorSpace6LookupENS_6Point2IfEES2_S2_S2_ENK3$_0clERKS2_S5_.exit.thread41"

71:                                               ; preds = %65, %"_ZZN4pbrt13RGBColorSpace6LookupENS_6Point2IfEES2_S2_S2_ENK3$_0clERKS2_S5_.exit33.thread"
  %72 = fcmp oeq float %.sroa.037.4.vec.extract, %.val31
  br i1 %72, label %.thread, label %"_ZZN4pbrt13RGBColorSpace6LookupENS_6Point2IfEES2_S2_S2_ENK3$_0clERKS2_S5_.exit34"

"_ZZN4pbrt13RGBColorSpace6LookupENS_6Point2IfEES2_S2_S2_ENK3$_0clERKS2_S5_.exit34": ; preds = %71
  %73 = fsub float %.sroa.037.4.vec.extract, %.val31
  %74 = fdiv float %73, %.val31
  %75 = tail call noundef float @llvm.fabs.f32(float %74)
  %76 = fpext float %75 to double
  %77 = fcmp olt double %76, 1.000000e-03
  br i1 %77, label %.thread, label %"_ZZN4pbrt13RGBColorSpace6LookupENS_6Point2IfEES2_S2_S2_ENK3$_0clERKS2_S5_.exit.thread41"

"_ZZN4pbrt13RGBColorSpace6LookupENS_6Point2IfEES2_S2_S2_ENK3$_0clERKS2_S5_.exit.thread41": ; preds = %65, %49, %33, %17, %"_ZZN4pbrt13RGBColorSpace6LookupENS_6Point2IfEES2_S2_S2_ENK3$_0clERKS2_S5_.exit34", %"_ZZN4pbrt13RGBColorSpace6LookupENS_6Point2IfEES2_S2_S2_ENK3$_0clERKS2_S5_.exit33", %"_ZZN4pbrt13RGBColorSpace6LookupENS_6Point2IfEES2_S2_S2_ENK3$_0clERKS2_S5_.exit32", %"_ZZN4pbrt13RGBColorSpace6LookupENS_6Point2IfEES2_S2_S2_ENK3$_0clERKS2_S5_.exit"
  %.016.add = add nuw nsw i64 %.016.idx47, 8
  %.not = icmp eq i64 %.016.add, 32
  br i1 %.not, label %.thread, label %13

.thread:                                          ; preds = %71, %"_ZZN4pbrt13RGBColorSpace6LookupENS_6Point2IfEES2_S2_S2_ENK3$_0clERKS2_S5_.exit34", %"_ZZN4pbrt13RGBColorSpace6LookupENS_6Point2IfEES2_S2_S2_ENK3$_0clERKS2_S5_.exit.thread41"
  %spec.select = phi ptr [ null, %"_ZZN4pbrt13RGBColorSpace6LookupENS_6Point2IfEES2_S2_S2_ENK3$_0clERKS2_S5_.exit.thread41" ], [ %14, %"_ZZN4pbrt13RGBColorSpace6LookupENS_6Point2IfEES2_S2_S2_ENK3$_0clERKS2_S5_.exit34" ], [ %14, %71 ]
  call void @llvm.lifetime.end.p0(i64 32, ptr nonnull %5) #24
  ret ptr %spec.select
}